(dp1
S'output'
p2
S"<type 'exceptions.NameError'> name 'icon_cancel' is not defined"
p3
sS'layer'
p4
S'/Users/yuzhuangchen/PycharmProjects/untitled/web2py/applications/StMaryU/views/default/index.html'
p5
sS'code'
p6
S'response.write(\'<!-- copyright by w3schools, http://www.w3schools.com/w3css/tryw3css_templates_architect.htm -->\\n\', escape=False)\nresponse.write(\'\\n<script src="\', escape=False)\nresponse.write(URL(\'static\', \'js/vue.js\'))\nresponse.write(\'"></script>\\n<script>\\n    var posts_url = "\', escape=False)\nresponse.write(URL(\'api\', \'get_posts\'))\nresponse.write(\'";\\n    var add_post_url = "\', escape=False)\nresponse.write(URL(\'api\', \'add_post\', user_signature=True))\nresponse.write(\'";\\n    var del_post_url = "\', escape=False)\nresponse.write(URL(\'api\', \'del_post\', user_signature=True))\nresponse.write(\'";\\n    var update_post_url = "\', escape=False)\nresponse.write(URL(\'api\', \'update_post\', user_signature=True))\nresponse.write(\'";\\n</script>\\n\', escape=False)\nresponse.write(\'\\n\\n\\n<head>\\n    <style>\\n        #head {\\n            color: white;\\n            font-size: larger;\\n        }\\n\\n        .video-container {\\n            position: relative;\\n            padding-bottom: 56.25%;\\n            padding-top: 30px;\\n            height: 0;\\n            overflow: hidden;\\n        }\\n\\n        .video-container iframe, .video-container object, .video-container embed {\\n            position: absolute;\\n            top: 0;\\n            left: 0;\\n            width: 100%;\\n            height: 100%;\\n        }\\n\\n    </style>\\n</head>\\n<html>\\n<title>Pre-Engineering Summer Program at St. Mary\\\'s University</title>\\n<meta name="viewport" content="width=device-width, initial-scale=1">\\n<link rel="stylesheet" href="http://www.w3schools.com/lib/w3.css">\\n<body>\\n\\n\\n<div class="w3-top">\\n    <ul class="w3-navbar w3-white w3-wide w3-padding-8 w3-card-2">\\n        <li>\\n            <a class="w3-margin-left" ; href=" http://www.stmarytx.edu/"><b><img style="width: 25px; height: 25px;"\\n                                                                                 src="https://s3-us-west-2.amazonaws.com/asset.plexuss.com/college/logos/St_Marys_University.png"\\n                                                                                 alt=""> </b> St.Mary\\\'s University</a>\\n        </li>\\n        <li class="w3-right w3-hide-small">\\n            <a href="http://cl.stmarytx.edu/esp/brochure.pdf" class="w3-left">Brochure</a>\\n            <a href="https://www.stmarytx.edu/academics/department/engineering/" class="w3-left">Engineering\\n                Department</a>\\n            <a href="https://www.stmarytx.edu/outreach/summer-camps/robotics-and-java-camp/"\\n               class="w3-left w3-margin-right">Application Form</a>\\n        </li>\\n    </ul>\\n</div>\\n\\n\\n<header class="w3-display-container w3-content w3-wide" style="max-width:2000px;" id="home">\\n    <img class="w3-image"\\n         src="http://rcysl.com/wp-content/uploads/2016/12/Blue-Hd-Wallpapers-HD-Collection.jpg"\\n         alt="Pre-Engineering Summer Program at St. Mary\\\'s University" style="width:100%;height: 400px">\\n    <div class="w3-display-middle w3-margin-top w3-center">\\n        <h1 id="head" class="w3-xxlarge"><span>Pre-Engineering Summer Program</span> <span\\n                class="w3-hide-small"> -- St. Mary\\\'s University</span>\\n        </h1>\\n    </div>\\n</header>\\n\\n\\n<!--About -->\\n<div class="w3-content w3-padding  " style="max-width:1100px ">\\n    <div class="w3-container w3-padding-32" id="about">\\n        <h3 class="w3-border-bottom w3-border-light-grey w3-padding-8">About</h3>\\n        <p>The Pre-Engineering Robotics and Java Programming Summer Program at St. Mary\\\'s University is designed to\\n            teach middle school and high school students to learn robotics, JAVA programming, and operations research.\\n            <span style="background-color:#ffff80">We will offer four two-week camps (<strong style="color:#ff0000">for commuters only</strong>) in the summer of 2017 on St. Mary\\\'s campus. The camp time is from 8:30am to 4pm. The camp is free of charge for accepted applicants.</span>\\n            A decision on the\\n            application will be made toward the end of April or early May 2017. Thanks a lot for your patience.\\n        </p>\\n        <p>\\n                   <span style="background-color:#ffff80"><span style="background-color:#ffff80"></span><strong\\n                           style="color:#ff0000">Note: To receive further announcements about\\n                   this program, please join its mailing list by visiting:<a\\n                               href="http://mailhide.recaptcha.net/d?k=01iTHYKq0gMvmiEmjZceWULw==&amp;c=3sO8Z4dliOxu-iR-sDzi_OzQkcPQydYFdikdrlD0KHHLv0wjBFy0nuKAvZulfkRv"\\n                               target="_blank"> Here</a> </strong></span>\\n        </p>\\n    </div>\\n\\n\\n    <!-- Video entries -->\\n    <div class="w3-content w3-padding  " style="max-width:1100px ">\\n\\n        <h3 class="w3-border-bottom w3-border-light-grey w3-padding-8">Projects</h3>\\n        <p>The following two videos demonstrate two of our students\\\' projects: a rubik\\\'s cube solver using a Mindstorm\\n            NXT robot and a video game developed for Android mobile devices using JAVA programming language.</p>\\n        <div class="w3-col l6 m6">\\n\\n            <!-- First Video entries -->\\n            <div class="w3-card-4 w3-margin w3-white">\\n                <div class="w3-container">\\n                    <object>\\n                        <param name="movie" value="http://www.youtube.com/v/NMYqOUVZ3V4&amp;hl=en_US&amp;fs=1&amp;">\\n                        <param name="allowFullScreen" value="true">\\n                        <param name="allowscriptaccess" value="always">\\n                        <embed src="http://www.youtube.com/v/NMYqOUVZ3V4&amp;hl=en_US&amp;fs=1&amp;"\\n                               type="application/x-shockwave-flash"\\n                               height="385" width="450">\\n                    </object>\\n                    <h3><b> A rubik\\\'s cube solver using a Mindstorm NXT robot</b></h3>\\n                    <div class="w3-row">\\n                    </div>\\n                </div>\\n            </div>\\n            <hr>\\n        </div>\\n\\n        <!-- First Video entries -->\\n        <div class="w3-col l6 m6">\\n            <div class="w3-card-4 w3-margin w3-white">\\n                <div class="w3-container">\\n                    <object>\\n                        <param name="movie" value="http://www.youtube.com/v/NMYqOUVZ3V4&amp;hl=en_US&amp;fs=1&amp;">\\n                        <param name="allowFullScreen" value="true">\\n                        <param name="allowscriptaccess" value="always">\\n                        <embed src="http://www.youtube.com/v/NMYqOUVZ3V4&amp;hl=en_US&amp;fs=1&amp;"\\n                               type="application/x-shockwave-flash"\\n                               height="385" width="450">\\n                    </object>\\n                    <h3><b> A rubik\\\'s cube solver using a Mindstorm NXT robot</b></h3>\\n                    <div class="w3-row">\\n                    </div>\\n                </div>\\n            </div>\\n            <hr>\\n        </div>\\n\\n        <!-- Professor Section -->\\n        <div class="w3-content w3-padding  " style="max-width:1100px ">\\n            <h3 class="w3-border-bottom w3-border-light-grey w3-padding-8">Program Director</h3>\\n            <div class="w3-row-padding">\\n                <div class="w3-col l6 m6 w3-margin-bottom ">\\n                    <img src="https://www.stmarytx.edu/wp-content/uploads/2016/06/SET-faculty-wenbin-luo.jpg"\\n                         style="width:50%;height: 20%"\\n                         alt="profile icon"></i>\\n                    <h3>Dr. Wenbin Luo, Program Director</h3>\\n                    <td style="text-align: left; width: 330px;" height="19"><span style="font-family: Times New Roman;"><br>\\n                        Professor<br>\\n                        Engineering Department<br>\\n                        St. Mary\\\'s University<br>\\n                        San Antonio, TX 78228<br>\\n                        <br>\\n                        Email: <a\\n                                href="http://mailhide.recaptcha.net/d?k=01aefe705BfaIowg6wuoTZkQ==&amp;c=31iT-J-Qj3wbr_gkGbvcGYOiGFUcrPFqbRonE1iE5qk="\\n                                target="_blank">click here</a> <br>\\n                        Tel: (210) 431-5002</span></td>\\n                </div>\\n\\n                <div class="w3-col l6 m6 w3-margin-bottom ">\\n                    <img src="https://www.stmarytx.edu/wp-content/uploads/2016/05/faculty-ozgur-aktunc-1.jpg"\\n                         style="width:50%;height: 20%"\\n                         alt="profile icon"></i>\\n                    <h3>Dr. Ozgur Aktunc, Program Co-Director</h3>\\n                    <td style="width: 330px;" align="left" height="19"><p align="left"><span\\n                            style="font-family: Times New Roman;"><br>\\n                            Associate Professor<br>\\n                            Engineering Department<br>\\n                            St. Mary\\\'s University<br>\\n                            San Antonio, TX 78228<br>\\n                            <br>\\n                            Email: <a\\n                                href="http://mailhide.recaptcha.net/d?k=01gVmrYGqp67bAM3p2HupRfg==&amp;c=bEaeqnHtfQWV5yoh27gfW8d5L8ju1FQtN6Lps3JBdUQ="\\n                                target="_blank">click here</a> <br>\\n                            Tel: (210) 431-2052</span></p>\\n                    </td>\\n                </div>\\n            </div>\\n        </div>\\n\\n\\n        <button v-if="is_adding_post" class="w3-btn w3-section, float-left, apply-btn" v-on:click="add_post_button()">\\n            <i class="fa fa-paper-plane"></i> Application\\n        </button>\\n\\n        <!-- Contact Section -->\\n        <div v-if="is_adding_post" id="add_post_div">\\n            <div class="w3-container w3-padding-32" id="application">\\n\\n                <h3 class="w3-border-bottom w3-border-light-grey w3-padding-12">Application</h3>\\n                <p>Lets get in touch and talk about your and the project.</p>\\n                <form action="form.asp" target="_blank">\\n                    <input class="w3-input" type="text" placeholder="First Name" required name="fName">\\n                    <input class="w3-input" type="text" placeholder="Last Name" required name="lName">\\n                    <input class="w3-input w3-section" type="text" placeholder="Email" required name="email">\\n                    <input class="w3-input w3-section" type="text" placeholder="Birthday" required name="birthday">\\n                    <input class="w3-input w3-section" type="text" placeholder="Mailing Address" required\\n                           name="mailing">\\n                    <input class="w3-input w3-section" type="text" placeholder="Phone" required name="phone">\\n                    <input class="w3-input w3-section" type="text" placeholder="School" required name="school">\\n                    <input class="w3-input w3-section" type="text" placeholder="GPA" required name="gpa">\\n                    <input class="w3-input w3-section" type="text" placeholder="Emergency Contact" required\\n                           name="emergency">\\n                    <input class="w3-input w3-section" type="text" placeholder="Teacher\\\'s name" required name="teacher">\\n                    <button class="w3-btn w3-section" type="submit">\\n                        <i class="fa fa-paper-plane"></i> SUBMIT\\n                    </button>\\n                    <button class="info_btn" v-on:click="get_more_info(post.id, post.destination)"><i\\n                            class="fa fa-minus fa-lg"></i> collapse\\n                    </button>\\n                </form>\\n            </div>\\n        </div>\\n\\n\\n</body>\\n</html>\\n<!-- Testing Purpse -->\\n         <div id="vue-div" class="display:none">\\n        <div class="button_bar">\\n\\n            <button v-if="!is_adding_post" class="btn btn-danger btn-sm" v-on:click="add_post_button()"\\n                    v-bind:class="{\\\'enabled\\\': logged_in}">\\n           Add new post\\n            </button>\\n            <button v-if="is_adding_post" class="btn btn-warning btn-sm" v-on:click="add_post_button()">\\n            \', escape=False)\nresponse.write(icon_cancel)\nresponse.write(\'Cancel\\n            </button>\\n\\n        </div>\\n\\n        <div v-if="is_adding_post" id="add_post_div">\\n            <form action="#" v-on:submit.prevent="add_post" class="form-horizontal" enctype="multipart/form-data"\\n                  method="post">\\n                <div class="form-group" id="no_table_post_content__row">\\n                    <div>\\n                        <textarea class="form-control string" rows="6" id="no_table_post_content"\\n                                  v-model="form_post_content" placeholder="Content" type="text"></textarea>\\n                        <span class="help-block"></span>\\n\\n                    </div>\\n                </div>\\n\\n                <div class="form-group" id="submit_record__row">\\n                    <div>\\n                        <input class="btn btn-primary" id="add_post_submit" type="submit" value="Submit"/>\\n\\n                    </div>\\n                </div>\\n            </form>\\n        </div>\\n\\n\\n    </div>\\n<script src="\', escape=False)\nresponse.write(URL(\'static\', \'js/default_index.js\'))\nresponse.write(\'"></script>\', escape=False)'
p7
sS'snapshot'
p8
(dp9
S'exception'
p10
(dp11
S'__hash__'
p12
S"<method-wrapper '__hash__' of exceptions.NameError object>"
p13
sS'__setattr__'
p14
S"<method-wrapper '__setattr__' of exceptions.NameError object>"
p15
sS'__reduce_ex__'
p16
S'<built-in method __reduce_ex__ of exceptions.NameError object>'
p17
sS'__getslice__'
p18
S"<method-wrapper '__getslice__' of exceptions.NameError object>"
p19
sS'__getitem__'
p20
S"<method-wrapper '__getitem__' of exceptions.NameError object>"
p21
sS'__setstate__'
p22
S'<built-in method __setstate__ of exceptions.NameError object>'
p23
sS'args'
p24
S'("name \'icon_cancel\' is not defined",)'
p25
sS'__reduce__'
p26
S'<built-in method __reduce__ of exceptions.NameError object>'
p27
sS'__str__'
p28
S"<method-wrapper '__str__' of exceptions.NameError object>"
p29
sS'__format__'
p30
S'<built-in method __format__ of exceptions.NameError object>'
p31
sS'__getattribute__'
p32
S"<method-wrapper '__getattribute__' of exceptions.NameError object>"
p33
sS'__class__'
p34
S"<type 'exceptions.NameError'>"
p35
sS'__unicode__'
p36
S'<built-in method __unicode__ of exceptions.NameError object>'
p37
sS'__delattr__'
p38
S"<method-wrapper '__delattr__' of exceptions.NameError object>"
p39
sS'__subclasshook__'
p40
S'<built-in method __subclasshook__ of type object>'
p41
sS'__repr__'
p42
S"<method-wrapper '__repr__' of exceptions.NameError object>"
p43
sS'__dict__'
p44
S'{}'
p45
sS'__sizeof__'
p46
S'<built-in method __sizeof__ of exceptions.NameError object>'
p47
sS'__doc__'
p48
S"'Name not found globally.'"
p49
sS'__init__'
p50
S"<method-wrapper '__init__' of exceptions.NameError object>"
p51
sS'__new__'
p52
S'<built-in method __new__ of type object>'
p53
ssS'evalue'
p54
S"name 'icon_cancel' is not defined"
p55
sS'request'
p56
cgluon.html
XML_unpickle
p57
(S's\xd7r\x00\x00<div><table><tr><td style="font-weight:bold;vertical-align:top;">ajax</td><td style="vertical-align:top;">:</td><td><div>False</div></td></tr><tr><td style="font-weight:bold;vertical-align:top;">application</td><td style="vertical-align:top;">:</td><td><div>StMaryU</div></td></tr><tr><td style="font-weight:bold;vertical-align:top;">args</td><td style="vertical-align:top;">:</td><td><div><table></table></div></td></tr><tr><td style="font-weight:bold;vertical-align:top;">cid</td><td style="vertical-align:top;">:</td><td><div>None</div></td></tr><tr><td style="font-weight:bold;vertical-align:top;">client</td><td style="vertical-align:top;">:</td><td><div>127.0.0.1</div></td></tr><tr><td style="font-weight:bold;vertical-align:top;">controller</td><td style="vertical-align:top;">:</td><td><div>default</div></td></tr><tr><td style="font-weight:bold;vertical-align:top;">cookies</td><td style="vertical-align:top;">:</td><td><div><table><tr><td style="font-weight:bold;vertical-align:top;">session_id_admin</td><td style="vertical-align:top;">:</td><td><div>127.0.0.1-cbd4a7ff-7666-4340-b950-db8f08f07d97<table><tr><td style="font-weight:bold;vertical-align:top;">comment</td><td style="vertical-align:top;">:</td><td><div></div></td></tr><tr><td style="font-weight:bold;vertical-align:top;">domain</td><td style="vertical-align:top;">:</td><td><div></div></td></tr><tr><td style="font-weight:bold;vertical-align:top;">expires</td><td style="vertical-align:top;">:</td><td><div></div></td></tr><tr><td style="font-weight:bold;vertical-align:top;">httponly</td><td style="vertical-align:top;">:</td><td><div></div></td></tr><tr><td style="font-weight:bold;vertical-align:top;">max-age</td><td style="vertical-align:top;">:</td><td><div></div></td></tr><tr><td style="font-weight:bold;vertical-align:top;">path</td><td style="vertical-align:top;">:</td><td><div></div></td></tr><tr><td style="font-weight:bold;vertical-align:top;">secure</td><td style="vertical-align:top;">:</td><td><div></div></td></tr><tr><td style="font-weight:bold;vertical-align:top;">version</td><td style="vertical-align:top;">:</td><td><div></div></td></tr></table></div></td></tr><tr><td style="font-weight:bold;vertical-align:top;">session_id_final</td><td style="vertical-align:top;">:</td><td><div>1:e19c2187-60c6-456a-908f-ce3f365ec484<table><tr><td style="font-weight:bold;vertical-align:top;">comment</td><td style="vertical-align:top;">:</td><td><div></div></td></tr><tr><td style="font-weight:bold;vertical-align:top;">domain</td><td style="vertical-align:top;">:</td><td><div></div></td></tr><tr><td style="font-weight:bold;vertical-align:top;">expires</td><td style="vertical-align:top;">:</td><td><div></div></td></tr><tr><td style="font-weight:bold;vertical-align:top;">httponly</td><td style="vertical-align:top;">:</td><td><div></div></td></tr><tr><td style="font-weight:bold;vertical-align:top;">max-age</td><td style="vertical-align:top;">:</td><td><div></div></td></tr><tr><td style="font-weight:bold;vertical-align:top;">path</td><td style="vertical-align:top;">:</td><td><div></div></td></tr><tr><td style="font-weight:bold;vertical-align:top;">secure</td><td style="vertical-align:top;">:</td><td><div></div></td></tr><tr><td style="font-weight:bold;vertical-align:top;">version</td><td style="vertical-align:top;">:</td><td><div></div></td></tr></table></div></td></tr><tr><td style="font-weight:bold;vertical-align:top;">session_id_hw3</td><td style="vertical-align:top;">:</td><td><div>48:5178f4f8-c69e-4749-9486-2f014988bcb4<table><tr><td style="font-weight:bold;vertical-align:top;">comment</td><td style="vertical-align:top;">:</td><td><div></div></td></tr><tr><td style="font-weight:bold;vertical-align:top;">domain</td><td style="vertical-align:top;">:</td><td><div></div></td></tr><tr><td style="font-weight:bold;vertical-align:top;">expires</td><td style="vertical-align:top;">:</td><td><div></div></td></tr><tr><td style="font-weight:bold;vertical-align:top;">httponly</td><td style="vertical-align:top;">:</td><td><div></div></td></tr><tr><td style="font-weight:bold;vertical-align:top;">max-age</td><td style="vertical-align:top;">:</td><td><div></div></td></tr><tr><td style="font-weight:bold;vertical-align:top;">path</td><td style="vertical-align:top;">:</td><td><div></div></td></tr><tr><td style="font-weight:bold;vertical-align:top;">secure</td><td style="vertical-align:top;">:</td><td><div></div></td></tr><tr><td style="font-weight:bold;vertical-align:top;">version</td><td style="vertical-align:top;">:</td><td><div></div></td></tr></table></div></td></tr><tr><td style="font-weight:bold;vertical-align:top;">session_id_stmaryu</td><td style="vertical-align:top;">:</td><td><div>3:44919337-4c10-4e0e-bd98-04394daf39b5<table><tr><td style="font-weight:bold;vertical-align:top;">comment</td><td style="vertical-align:top;">:</td><td><div></div></td></tr><tr><td style="font-weight:bold;vertical-align:top;">domain</td><td style="vertical-align:top;">:</td><td><div></div></td></tr><tr><td style="font-weight:bold;vertical-align:top;">expires</td><td style="vertical-align:top;">:</td><td><div></div></td></tr><tr><td style="font-weight:bold;vertical-align:top;">httponly</td><td style="vertical-align:top;">:</td><td><div></div></td></tr><tr><td style="font-weight:bold;vertical-align:top;">max-age</td><td style="vertical-align:top;">:</td><td><div></div></td></tr><tr><td style="font-weight:bold;vertical-align:top;">path</td><td style="vertical-align:top;">:</td><td><div></div></td></tr><tr><td style="font-weight:bold;vertical-align:top;">secure</td><td style="vertical-align:top;">:</td><td><div></div></td></tr><tr><td style="font-weight:bold;vertical-align:top;">version</td><td style="vertical-align:top;">:</td><td><div></div></td></tr></table></div></td></tr><tr><td style="font-weight:bold;vertical-align:top;">session_id_welcome</td><td style="vertical-align:top;">:</td><td><div>127.0.0.1-81c74e47-31c0-4d30-b585-ae984e07db4a<table><tr><td style="font-weight:bold;vertical-align:top;">comment</td><td style="vertical-align:top;">:</td><td><div></div></td></tr><tr><td style="font-weight:bold;vertical-align:top;">domain</td><td style="vertical-align:top;">:</td><td><div></div></td></tr><tr><td style="font-weight:bold;vertical-align:top;">expires</td><td style="vertical-align:top;">:</td><td><div></div></td></tr><tr><td style="font-weight:bold;vertical-align:top;">httponly</td><td style="vertical-align:top;">:</td><td><div></div></td></tr><tr><td style="font-weight:bold;vertical-align:top;">max-age</td><td style="vertical-align:top;">:</td><td><div></div></td></tr><tr><td style="font-weight:bold;vertical-align:top;">path</td><td style="vertical-align:top;">:</td><td><div></div></td></tr><tr><td style="font-weight:bold;vertical-align:top;">secure</td><td style="vertical-align:top;">:</td><td><div></div></td></tr><tr><td style="font-weight:bold;vertical-align:top;">version</td><td style="vertical-align:top;">:</td><td><div></div></td></tr></table></div></td></tr></table></div></td></tr><tr><td style="font-weight:bold;vertical-align:top;">env</td><td style="vertical-align:top;">:</td><td><div><table><tr><td style="font-weight:bold;vertical-align:top;">CONTENT_LENGTH</td><td style="vertical-align:top;">:</td><td><div>44</div></td></tr><tr><td style="font-weight:bold;vertical-align:top;">CONTENT_TYPE</td><td style="vertical-align:top;">:</td><td><div>multipart/form-data; boundary=----WebKitFormBoundary58jIMDOwx0q6w638</div></td></tr><tr><td style="font-weight:bold;vertical-align:top;">HTTP_ACCEPT</td><td style="vertical-align:top;">:</td><td><div>text/html,application/xhtml+xml,application/xml;q=0.9,image/webp,image/apng,*/*;q=0.8</div></td></tr><tr><td style="font-weight:bold;vertical-align:top;">HTTP_ACCEPT_ENCODING</td><td style="vertical-align:top;">:</td><td><div>gzip, deflate, br</div></td></tr><tr><td style="font-weight:bold;vertical-align:top;">HTTP_ACCEPT_LANGUAGE</td><td style="vertical-align:top;">:</td><td><div>en-US,en;q=0.8,zh-TW;q=0.6,zh;q=0.4</div></td></tr><tr><td style="font-weight:bold;vertical-align:top;">HTTP_CACHE_CONTROL</td><td style="vertical-align:top;">:</td><td><div>max-age=0</div></td></tr><tr><td style="font-weight:bold;vertical-align:top;">HTTP_CONNECTION</td><td style="vertical-align:top;">:</td><td><div>keep-alive</div></td></tr><tr><td style="font-weight:bold;vertical-align:top;">HTTP_CONTENT_LENGTH</td><td style="vertical-align:top;">:</td><td><div>44</div></td></tr><tr><td style="font-weight:bold;vertical-align:top;">HTTP_CONTENT_TYPE</td><td style="vertical-align:top;">:</td><td><div>multipart/form-data; boundary=----WebKitFormBoundary58jIMDOwx0q6w638</div></td></tr><tr><td style="font-weight:bold;vertical-align:top;">HTTP_COOKIE</td><td style="vertical-align:top;">:</td><td><div>session_id_welcome=127.0.0.1-81c74e47-31c0-4d30-b585-ae984e07db4a; session_id_final=&quot;1:e19c2187-60c6-456a-908f-ce3f365ec484&quot;; session_id_admin=127.0.0.1-cbd4a7ff-7666-4340-b950-db8f08f07d97; session_id_stmaryu=&quot;3:44919337-4c10-4e0e-bd98-04394daf39b5&quot;; session_id_hw3=&quot;48:5178f4f8-c69e-4749-9486-2f014988bcb4&quot;</div></td></tr><tr><td style="font-weight:bold;vertical-align:top;">HTTP_HOST</td><td style="vertical-align:top;">:</td><td><div>127.0.0.1:8000</div></td></tr><tr><td style="font-weight:bold;vertical-align:top;">HTTP_ORIGIN</td><td style="vertical-align:top;">:</td><td><div>http://127.0.0.1:8000</div></td></tr><tr><td style="font-weight:bold;vertical-align:top;">HTTP_REFERER</td><td style="vertical-align:top;">:</td><td><div>http://127.0.0.1:8000/StMaryU/default/index</div></td></tr><tr><td style="font-weight:bold;vertical-align:top;">HTTP_UPGRADE_INSECURE_REQUESTS</td><td style="vertical-align:top;">:</td><td><div>1</div></td></tr><tr><td style="font-weight:bold;vertical-align:top;">HTTP_USER_AGENT</td><td style="vertical-align:top;">:</td><td><div>Mozilla/5.0 (Macintosh; Intel Mac OS X 10_12_6) AppleWebKit/537.36 (KHTML, like Gecko) Chrome/59.0.3071.115 Safari/537.36</div></td></tr><tr><td style="font-weight:bold;vertical-align:top;">PATH_INFO</td><td style="vertical-align:top;">:</td><td><div>/StMaryU/default/index</div></td></tr><tr><td style="font-weight:bold;vertical-align:top;">QUERY_STRING</td><td style="vertical-align:top;">:</td><td><div></div></td></tr><tr><td style="font-weight:bold;vertical-align:top;">REMOTE_ADDR</td><td style="vertical-align:top;">:</td><td><div>127.0.0.1</div></td></tr><tr><td style="font-weight:bold;vertical-align:top;">REMOTE_PORT</td><td style="vertical-align:top;">:</td><td><div>51920</div></td></tr><tr><td style="font-weight:bold;vertical-align:top;">REQUEST_METHOD</td><td style="vertical-align:top;">:</td><td><div>POST</div></td></tr><tr><td style="font-weight:bold;vertical-align:top;">SCRIPT_NAME</td><td style="vertical-align:top;">:</td><td><div></div></td></tr><tr><td style="font-weight:bold;vertical-align:top;">SERVER_NAME</td><td style="vertical-align:top;">:</td><td><div>YuzhuangdeMacBook-Pro.local</div></td></tr><tr><td style="font-weight:bold;vertical-align:top;">SERVER_PORT</td><td style="vertical-align:top;">:</td><td><div>8000</div></td></tr><tr><td style="font-weight:bold;vertical-align:top;">SERVER_PROTOCOL</td><td style="vertical-align:top;">:</td><td><div>HTTP/1.1</div></td></tr><tr><td style="font-weight:bold;vertical-align:top;">SERVER_SOFTWARE</td><td style="vertical-align:top;">:</td><td><div>Rocket 1.2.6</div></td></tr><tr><td style="font-weight:bold;vertical-align:top;">app_folders</td><td style="vertical-align:top;">:</td><td><div>set([&#x27;/Users/yuzhuangchen/PycharmProjects/untitled/web2py/applications/StMaryU/&#x27;, &#x27;/Users/yuzhuangchen/PycharmProjects/untitled/web2py/applications/Final/&#x27;, &#x27;/Users/yuzhuangchen/PycharmProjects/untitled/web2py/applications/admin/&#x27;, &#x27;/Users/yuzhuangchen/PycharmProjects/untitled/web2py/applications/hw3/&#x27;, &#x27;/Users/yuzhuangchen/PycharmProjects/untitled/web2py/applications/welcome/&#x27;])</div></td></tr><tr><td style="font-weight:bold;vertical-align:top;">applications_parent</td><td style="vertical-align:top;">:</td><td><div>/Users/yuzhuangchen/PycharmProjects/untitled/web2py</div></td></tr><tr><td style="font-weight:bold;vertical-align:top;">cmd_args</td><td style="vertical-align:top;">:</td><td><div><table></table></div></td></tr><tr><td style="font-weight:bold;vertical-align:top;">cmd_options</td><td style="vertical-align:top;">:</td><td><div>&lt;Values at 0x103760bd8: {&#x27;verbose&#x27;: False, &#x27;ip&#x27;: &#x27;127.0.0.1&#x27;, &#x27;debuglevel&#x27;: 30, &#x27;with_scheduler&#x27;: False, &#x27;shutdown_timeout&#x27;: 5, &#x27;taskbar&#x27;: False, &#x27;with_coverage&#x27;: False, &#x27;pid_filename&#x27;: &#x27;httpserver.pid&#x27;, &#x27;maxthreads&#x27;: None, &#x27;softcron&#x27;: False, &#x27;server_name&#x27;: &#x27;YuzhuangdeMacBook-Pro.local&#x27;, &#x27;bpython&#x27;: False, &#x27;nogui&#x27;: False, &#x27;port&#x27;: 8000, &#x27;print_errors&#x27;: False, &#x27;extcron&#x27;: False, &#x27;runcron&#x27;: False, &#x27;run_system_tests&#x27;: False, &#x27;test&#x27;: None, &#x27;folder&#x27;: &#x27;/Users/yuzhuangchen/PycharmProjects/untitled/web2py&#x27;, &#x27;config&#x27;: &#x27;&#x27;, &#x27;minthreads&#x27;: None, &#x27;shell&#x27;: None, &#x27;run&#x27;: &#x27;&#x27;, &#x27;log_filename&#x27;: &#x27;httpserver.log&#x27;, &#x27;profiler_dir&#x27;: None, &#x27;args&#x27;: [&#x27;&#x27;], &#x27;socket_timeout&#x27;: 5, &#x27;ssl_ca_certificate&#x27;: None, &#x27;scheduler&#x27;: None, &#x27;interfaces&#x27;: None, &#x27;ssl_private_key&#x27;: &#x27;&#x27;, &#x27;gae&#x27;: None, &#x27;password&#x27;: &#x27;******&#x27;, &#x27;request_queue_size&#x27;: 5, &#x27;ssl_certificate&#x27;: &#x27;&#x27;, &#x27;cronjob&#x27;: False, &#x27;numthreads&#x27;: None, &#x27;quiet&#x27;: False, &#x27;import_models&#x27;: False, &#x27;timeout&#x27;: 10, &#x27;plain&#x27;: False, &#x27;nobanner&#x27;: False}&gt;</div></td></tr><tr><td style="font-weight:bold;vertical-align:top;">content_length</td><td style="vertical-align:top;">:</td><td><div>44</div></td></tr><tr><td style="font-weight:bold;vertical-align:top;">content_type</td><td style="vertical-align:top;">:</td><td><div>multipart/form-data; boundary=----WebKitFormBoundary58jIMDOwx0q6w638</div></td></tr><tr><td style="font-weight:bold;vertical-align:top;">db_sessions</td><td style="vertical-align:top;">:</td><td><div>set([&#x27;Final&#x27;, &#x27;StMaryU&#x27;, &#x27;hw3&#x27;])</div></td></tr><tr><td style="font-weight:bold;vertical-align:top;">debugging</td><td style="vertical-align:top;">:</td><td><div>False</div></td></tr><tr><td style="font-weight:bold;vertical-align:top;">gluon_parent</td><td style="vertical-align:top;">:</td><td><div>/Users/yuzhuangchen/PycharmProjects/untitled/web2py</div></td></tr><tr><td style="font-weight:bold;vertical-align:top;">http_accept</td><td style="vertical-align:top;">:</td><td><div>text/html,application/xhtml+xml,application/xml;q=0.9,image/webp,image/apng,*/*;q=0.8</div></td></tr><tr><td style="font-weight:bold;vertical-align:top;">http_accept_encoding</td><td style="vertical-align:top;">:</td><td><div>gzip, deflate, br</div></td></tr><tr><td style="font-weight:bold;vertical-align:top;">http_accept_language</td><td style="vertical-align:top;">:</td><td><div>en-US,en;q=0.8,zh-TW;q=0.6,zh;q=0.4</div></td></tr><tr><td style="font-weight:bold;vertical-align:top;">http_cache_control</td><td style="vertical-align:top;">:</td><td><div>max-age=0</div></td></tr><tr><td style="font-weight:bold;vertical-align:top;">http_connection</td><td style="vertical-align:top;">:</td><td><div>keep-alive</div></td></tr><tr><td style="font-weight:bold;vertical-align:top;">http_content_length</td><td style="vertical-align:top;">:</td><td><div>44</div></td></tr><tr><td style="font-weight:bold;vertical-align:top;">http_content_type</td><td style="vertical-align:top;">:</td><td><div>multipart/form-data; boundary=----WebKitFormBoundary58jIMDOwx0q6w638</div></td></tr><tr><td style="font-weight:bold;vertical-align:top;">http_cookie</td><td style="vertical-align:top;">:</td><td><div>session_id_welcome=127.0.0.1-81c74e47-31c0-4d30-b585-ae984e07db4a; session_id_final=&quot;1:e19c2187-60c6-456a-908f-ce3f365ec484&quot;; session_id_admin=127.0.0.1-cbd4a7ff-7666-4340-b950-db8f08f07d97; session_id_stmaryu=&quot;3:44919337-4c10-4e0e-bd98-04394daf39b5&quot;; session_id_hw3=&quot;48:5178f4f8-c69e-4749-9486-2f014988bcb4&quot;</div></td></tr><tr><td style="font-weight:bold;vertical-align:top;">http_host</td><td style="vertical-align:top;">:</td><td><div>127.0.0.1:8000</div></td></tr><tr><td style="font-weight:bold;vertical-align:top;">http_origin</td><td style="vertical-align:top;">:</td><td><div>http://127.0.0.1:8000</div></td></tr><tr><td style="font-weight:bold;vertical-align:top;">http_referer</td><td style="vertical-align:top;">:</td><td><div>http://127.0.0.1:8000/StMaryU/default/index</div></td></tr><tr><td style="font-weight:bold;vertical-align:top;">http_upgrade_insecure_requests</td><td style="vertical-align:top;">:</td><td><div>1</div></td></tr><tr><td style="font-weight:bold;vertical-align:top;">http_user_agent</td><td style="vertical-align:top;">:</td><td><div>Mozilla/5.0 (Macintosh; Intel Mac OS X 10_12_6) AppleWebKit/537.36 (KHTML, like Gecko) Chrome/59.0.3071.115 Safari/537.36</div></td></tr><tr><td style="font-weight:bold;vertical-align:top;">is_jython</td><td style="vertical-align:top;">:</td><td><div>False</div></td></tr><tr><td style="font-weight:bold;vertical-align:top;">is_pypy</td><td style="vertical-align:top;">:</td><td><div>False</div></td></tr><tr><td style="font-weight:bold;vertical-align:top;">is_source</td><td style="vertical-align:top;">:</td><td><div>True</div></td></tr><tr><td style="font-weight:bold;vertical-align:top;">local_hosts</td><td style="vertical-align:top;">:</td><td><div><table><tr><td><div>yuzhuangdemacbook-pro.local</div></td></tr><tr><td><div>YuzhuangdeMacBook-Pro.local</div></td></tr><tr><td><div>fe80::427:dc22:d078:a355%en0</div></td></tr><tr><td><div>::ffff:127.0.0.1</div></td></tr><tr><td><div>::1</div></td></tr><tr><td><div>2605:e000:1313:813d:109a:6c56:fdec:2722</div></td></tr><tr><td><div>192.168.0.101</div></td></tr><tr><td><div>127.0.0.1</div></td></tr></table></div></td></tr><tr><td style="font-weight:bold;vertical-align:top;">path_info</td><td style="vertical-align:top;">:</td><td><div>/StMaryU/default/index</div></td></tr><tr><td style="font-weight:bold;vertical-align:top;">query_string</td><td style="vertical-align:top;">:</td><td><div></div></td></tr><tr><td style="font-weight:bold;vertical-align:top;">remote_addr</td><td style="vertical-align:top;">:</td><td><div>127.0.0.1</div></td></tr><tr><td style="font-weight:bold;vertical-align:top;">remote_port</td><td style="vertical-align:top;">:</td><td><div>51920</div></td></tr><tr><td style="font-weight:bold;vertical-align:top;">request_method</td><td style="vertical-align:top;">:</td><td><div>POST</div></td></tr><tr><td style="font-weight:bold;vertical-align:top;">request_uri</td><td style="vertical-align:top;">:</td><td><div>/StMaryU/default/index</div></td></tr><tr><td style="font-weight:bold;vertical-align:top;">script_name</td><td style="vertical-align:top;">:</td><td><div></div></td></tr><tr><td style="font-weight:bold;vertical-align:top;">server_name</td><td style="vertical-align:top;">:</td><td><div>YuzhuangdeMacBook-Pro.local</div></td></tr><tr><td style="font-weight:bold;vertical-align:top;">server_port</td><td style="vertical-align:top;">:</td><td><div>8000</div></td></tr><tr><td style="font-weight:bold;vertical-align:top;">server_protocol</td><td style="vertical-align:top;">:</td><td><div>HTTP/1.1</div></td></tr><tr><td style="font-weight:bold;vertical-align:top;">server_software</td><td style="vertical-align:top;">:</td><td><div>Rocket 1.2.6</div></td></tr><tr><td style="font-weight:bold;vertical-align:top;">web2py_path</td><td style="vertical-align:top;">:</td><td><div>/Users/yuzhuangchen/PycharmProjects/untitled/web2py</div></td></tr><tr><td style="font-weight:bold;vertical-align:top;">web2py_version</td><td style="vertical-align:top;">:</td><td><div>2.14.6-stable+timestamp.2016.05.10.00.21.47</div></td></tr><tr><td style="font-weight:bold;vertical-align:top;">wsgi.errors</td><td style="vertical-align:top;">:</td><td><div>&lt;open file &#x27;&lt;stderr&gt;&#x27;, mode &#x27;w&#x27; at 0x1002c11e0&gt;</div></td></tr><tr><td style="font-weight:bold;vertical-align:top;">wsgi.file_wrapper</td><td style="vertical-align:top;">:</td><td><div>&lt;class wsgiref.util.FileWrapper at 0x1037034c8&gt;</div></td></tr><tr><td style="font-weight:bold;vertical-align:top;">wsgi.input</td><td style="vertical-align:top;">:</td><td><div>&lt;socket._fileobject object at 0x110e68e50&gt;</div></td></tr><tr><td style="font-weight:bold;vertical-align:top;">wsgi.multiprocess</td><td style="vertical-align:top;">:</td><td><div>False</div></td></tr><tr><td style="font-weight:bold;vertical-align:top;">wsgi.multithread</td><td style="vertical-align:top;">:</td><td><div>True</div></td></tr><tr><td style="font-weight:bold;vertical-align:top;">wsgi.run_once</td><td style="vertical-align:top;">:</td><td><div>False</div></td></tr><tr><td style="font-weight:bold;vertical-align:top;">wsgi.url_scheme</td><td style="vertical-align:top;">:</td><td><div>http</div></td></tr><tr><td style="font-weight:bold;vertical-align:top;">wsgi.version</td><td style="vertical-align:top;">:</td><td><div><table><tr><td><div>1</div></td></tr><tr><td><div>0</div></td></tr></table></div></td></tr><tr><td style="font-weight:bold;vertical-align:top;">wsgi_errors</td><td style="vertical-align:top;">:</td><td><div>&lt;open file &#x27;&lt;stderr&gt;&#x27;, mode &#x27;w&#x27; at 0x1002c11e0&gt;</div></td></tr><tr><td style="font-weight:bold;vertical-align:top;">wsgi_file_wrapper</td><td style="vertical-align:top;">:</td><td><div>&lt;class wsgiref.util.FileWrapper at 0x1037034c8&gt;</div></td></tr><tr><td style="font-weight:bold;vertical-align:top;">wsgi_input</td><td style="vertical-align:top;">:</td><td><div>&lt;socket._fileobject object at 0x110e68e50&gt;</div></td></tr><tr><td style="font-weight:bold;vertical-align:top;">wsgi_multiprocess</td><td style="vertical-align:top;">:</td><td><div>False</div></td></tr><tr><td style="font-weight:bold;vertical-align:top;">wsgi_multithread</td><td style="vertical-align:top;">:</td><td><div>True</div></td></tr><tr><td style="font-weight:bold;vertical-align:top;">wsgi_run_once</td><td style="vertical-align:top;">:</td><td><div>False</div></td></tr><tr><td style="font-weight:bold;vertical-align:top;">wsgi_url_scheme</td><td style="vertical-align:top;">:</td><td><div>http</div></td></tr><tr><td style="font-weight:bold;vertical-align:top;">wsgi_version</td><td style="vertical-align:top;">:</td><td><div><table><tr><td><div>1</div></td></tr><tr><td><div>0</div></td></tr></table></div></td></tr></table></div></td></tr><tr><td style="font-weight:bold;vertical-align:top;">extension</td><td style="vertical-align:top;">:</td><td><div>html</div></td></tr><tr><td style="font-weight:bold;vertical-align:top;">folder</td><td style="vertical-align:top;">:</td><td><div>/Users/yuzhuangchen/PycharmProjects/untitled/web2py/applications/StMaryU/</div></td></tr><tr><td style="font-weight:bold;vertical-align:top;">function</td><td style="vertical-align:top;">:</td><td><div>index</div></td></tr><tr><td style="font-weight:bold;vertical-align:top;">global_settings</td><td style="vertical-align:top;">:</td><td><div><table><tr><td style="font-weight:bold;vertical-align:top;">app_folders</td><td style="vertical-align:top;">:</td><td><div>set([&#x27;/Users/yuzhuangchen/PycharmProjects/untitled/web2py/applications/StMaryU/&#x27;, &#x27;/Users/yuzhuangchen/PycharmProjects/untitled/web2py/applications/Final/&#x27;, &#x27;/Users/yuzhuangchen/PycharmProjects/untitled/web2py/applications/admin/&#x27;, &#x27;/Users/yuzhuangchen/PycharmProjects/untitled/web2py/applications/hw3/&#x27;, &#x27;/Users/yuzhuangchen/PycharmProjects/untitled/web2py/applications/welcome/&#x27;])</div></td></tr><tr><td style="font-weight:bold;vertical-align:top;">applications_parent</td><td style="vertical-align:top;">:</td><td><div>/Users/yuzhuangchen/PycharmProjects/untitled/web2py</div></td></tr><tr><td style="font-weight:bold;vertical-align:top;">cmd_args</td><td style="vertical-align:top;">:</td><td><div><table></table></div></td></tr><tr><td style="font-weight:bold;vertical-align:top;">cmd_options</td><td style="vertical-align:top;">:</td><td><div>&lt;Values at 0x103760bd8: {&#x27;verbose&#x27;: False, &#x27;ip&#x27;: &#x27;127.0.0.1&#x27;, &#x27;debuglevel&#x27;: 30, &#x27;with_scheduler&#x27;: False, &#x27;shutdown_timeout&#x27;: 5, &#x27;taskbar&#x27;: False, &#x27;with_coverage&#x27;: False, &#x27;pid_filename&#x27;: &#x27;httpserver.pid&#x27;, &#x27;maxthreads&#x27;: None, &#x27;softcron&#x27;: False, &#x27;server_name&#x27;: &#x27;YuzhuangdeMacBook-Pro.local&#x27;, &#x27;bpython&#x27;: False, &#x27;nogui&#x27;: False, &#x27;port&#x27;: 8000, &#x27;print_errors&#x27;: False, &#x27;extcron&#x27;: False, &#x27;runcron&#x27;: False, &#x27;run_system_tests&#x27;: False, &#x27;test&#x27;: None, &#x27;folder&#x27;: &#x27;/Users/yuzhuangchen/PycharmProjects/untitled/web2py&#x27;, &#x27;config&#x27;: &#x27;&#x27;, &#x27;minthreads&#x27;: None, &#x27;shell&#x27;: None, &#x27;run&#x27;: &#x27;&#x27;, &#x27;log_filename&#x27;: &#x27;httpserver.log&#x27;, &#x27;profiler_dir&#x27;: None, &#x27;args&#x27;: [&#x27;&#x27;], &#x27;socket_timeout&#x27;: 5, &#x27;ssl_ca_certificate&#x27;: None, &#x27;scheduler&#x27;: None, &#x27;interfaces&#x27;: None, &#x27;ssl_private_key&#x27;: &#x27;&#x27;, &#x27;gae&#x27;: None, &#x27;password&#x27;: &#x27;******&#x27;, &#x27;request_queue_size&#x27;: 5, &#x27;ssl_certificate&#x27;: &#x27;&#x27;, &#x27;cronjob&#x27;: False, &#x27;numthreads&#x27;: None, &#x27;quiet&#x27;: False, &#x27;import_models&#x27;: False, &#x27;timeout&#x27;: 10, &#x27;plain&#x27;: False, &#x27;nobanner&#x27;: False}&gt;</div></td></tr><tr><td style="font-weight:bold;vertical-align:top;">db_sessions</td><td style="vertical-align:top;">:</td><td><div>set([&#x27;Final&#x27;, &#x27;StMaryU&#x27;, &#x27;hw3&#x27;])</div></td></tr><tr><td style="font-weight:bold;vertical-align:top;">debugging</td><td style="vertical-align:top;">:</td><td><div>False</div></td></tr><tr><td style="font-weight:bold;vertical-align:top;">gluon_parent</td><td style="vertical-align:top;">:</td><td><div>/Users/yuzhuangchen/PycharmProjects/untitled/web2py</div></td></tr><tr><td style="font-weight:bold;vertical-align:top;">is_jython</td><td style="vertical-align:top;">:</td><td><div>False</div></td></tr><tr><td style="font-weight:bold;vertical-align:top;">is_pypy</td><td style="vertical-align:top;">:</td><td><div>False</div></td></tr><tr><td style="font-weight:bold;vertical-align:top;">is_source</td><td style="vertical-align:top;">:</td><td><div>True</div></td></tr><tr><td style="font-weight:bold;vertical-align:top;">local_hosts</td><td style="vertical-align:top;">:</td><td><div><table><tr><td><div>yuzhuangdemacbook-pro.local</div></td></tr><tr><td><div>YuzhuangdeMacBook-Pro.local</div></td></tr><tr><td><div>fe80::427:dc22:d078:a355%en0</div></td></tr><tr><td><div>::ffff:127.0.0.1</div></td></tr><tr><td><div>::1</div></td></tr><tr><td><div>2605:e000:1313:813d:109a:6c56:fdec:2722</div></td></tr><tr><td><div>192.168.0.101</div></td></tr><tr><td><div>127.0.0.1</div></td></tr></table></div></td></tr><tr><td style="font-weight:bold;vertical-align:top;">web2py_version</td><td style="vertical-align:top;">:</td><td><div>2.14.6-stable+timestamp.2016.05.10.00.21.47</div></td></tr></table></div></td></tr><tr><td style="font-weight:bold;vertical-align:top;">is_https</td><td style="vertical-align:top;">:</td><td><div>False</div></td></tr><tr><td style="font-weight:bold;vertical-align:top;">is_local</td><td style="vertical-align:top;">:</td><td><div>True</div></td></tr><tr><td style="font-weight:bold;vertical-align:top;">is_restful</td><td style="vertical-align:top;">:</td><td><div>False</div></td></tr><tr><td style="font-weight:bold;vertical-align:top;">is_scheduler</td><td style="vertical-align:top;">:</td><td><div>False</div></td></tr><tr><td style="font-weight:bold;vertical-align:top;">is_shell</td><td style="vertical-align:top;">:</td><td><div>False</div></td></tr><tr><td style="font-weight:bold;vertical-align:top;">now</td><td style="vertical-align:top;">:</td><td><div>datetime.datetime(2017, 7, 26, 13, 40, 14, 752084)</div></td></tr><tr><td style="font-weight:bold;vertical-align:top;">raw_args</td><td style="vertical-align:top;">:</td><td><div></div></td></tr><tr><td style="font-weight:bold;vertical-align:top;">raw_extension</td><td style="vertical-align:top;">:</td><td><div>None</div></td></tr><tr><td style="font-weight:bold;vertical-align:top;">url</td><td style="vertical-align:top;">:</td><td><div>/StMaryU/default/index</div></td></tr><tr><td style="font-weight:bold;vertical-align:top;">utcnow</td><td style="vertical-align:top;">:</td><td><div>datetime.datetime(2017, 7, 26, 20, 40, 14, 752090)</div></td></tr><tr><td style="font-weight:bold;vertical-align:top;">wsgi</td><td style="vertical-align:top;">:</td><td><div>&lt;gluon.main.LazyWSGI object at 0x1112dfe90&gt;</div></td></tr></table></div>'
tRp58
sS'frames'
p59
(lp60
(dp61
S'file'
p62
S'/Users/yuzhuangchen/PycharmProjects/untitled/web2py/gluon/restricted.py'
p63
sS'dump'
p64
(dp65
S'environment'
p66
S"{'A': <class 'gluon.html.A'>, 'ANY_OF': <class 'gluon.validators.ANY_OF'>, 'ASSIGNJS': <function ASSIGNJS>, 'AppConfig': <function AppConfig>, 'Auth': <class 'gluon.tools.Auth'>, 'B': <class 'gluon.html.B'>, 'BEAUTIFY': <class 'gluon.html.BEAUTIFY'>, 'BODY': <class 'gluon.html.BODY'>, 'BR': <class 'gluon.html.BR'>, 'BUTTON': <class 'gluon.html.BUTTON'>, ...}"
p67
sS'ccode'
p68
S'<code object <module> at 0x1105edbb0, file "/Use...ations/StMaryU/views/default/index.html", line 1>'
p69
ssS'lnum'
p70
I227
sS'lines'
p71
(dp72
I224
S'            ccode = code'
p73
sI225
S'        else:'
p74
sI226
S'            ccode = compile2(code, layer)'
p75
sI227
S'        exec ccode in environment'
p76
sI228
S'    except HTTP:'
p77
sI229
S'        raise'
p78
sI230
S'    except RestrictedError:'
p79
sI231
S'        # do not encapsulate (obfuscate) the original RestrictedError'
p80
sI222
S'    try:'
p81
sI223
S'        if isinstance(code, types.CodeType):'
p82
ssS'call'
p83
S'(code=\'response.write(\\\'<!-- copyright by w3schools, htt...js\\\'))\\nresponse.write(\\\'"></script>\\\', escape=False)\', environment={\'A\': <class \'gluon.html.A\'>, \'ANY_OF\': <class \'gluon.validators.ANY_OF\'>, \'ASSIGNJS\': <function ASSIGNJS>, \'AppConfig\': <function AppConfig>, \'Auth\': <class \'gluon.tools.Auth\'>, \'B\': <class \'gluon.html.B\'>, \'BEAUTIFY\': <class \'gluon.html.BEAUTIFY\'>, \'BODY\': <class \'gluon.html.BODY\'>, \'BR\': <class \'gluon.html.BR\'>, \'BUTTON\': <class \'gluon.html.BUTTON\'>, ...}, layer=\'/Users/yuzhuangchen/PycharmProjects/untitled/web2py/applications/StMaryU/views/default/index.html\')'
p84
sS'func'
p85
S'restricted'
p86
sa(dp87
g62
S'/Users/yuzhuangchen/PycharmProjects/untitled/web2py/applications/StMaryU/views/default/index.html'
p88
sg64
(dp89
S'style'
p90
S'undefined'
p91
ssg70
I14
sg71
(dp92
I5
S"response.write(URL('api', 'get_posts'))"
p93
sI6
S'response.write(\'";\\n    var add_post_url = "\', escape=False)'
p94
sI7
S"response.write(URL('api', 'add_post', user_signature=True))"
p95
sI8
S'response.write(\'";\\n    var del_post_url = "\', escape=False)'
p96
sI9
S"response.write(URL('api', 'del_post', user_signature=True))"
p97
sI10
S'response.write(\'";\\n    var update_post_url = "\', escape=False)'
p98
sI11
S"response.write(URL('api', 'update_post', user_signature=True))"
p99
sI12
S'response.write(\'";\\n</script>\\n\', escape=False)'
p100
sI13
S'response.write(\'\\n\\n\\n<head>\\n    <style>\\n        #head {\\n            color: white;\\n            font-size: larger;\\n        }\\n\\n        .video-container {\\n            position: relative;\\n            padding-bottom: 56.25%;\\n            padding-top: 30px;\\n            height: 0;\\n            overflow: hidden;\\n        }\\n\\n        .video-container iframe, .video-container object, .video-container embed {\\n            position: absolute;\\n            top: 0;\\n            left: 0;\\n            width: 100%;\\n            height: 100%;\\n        }\\n\\n    </style>\\n</head>\\n<html>\\n<title>Pre-Engineering Summer Program at St. Mary\\\'s University</title>\\n<meta name="viewport" content="width=device-width, initial-scale=1">\\n<link rel="stylesheet" href="http://www.w3schools.com/lib/w3.css">\\n<body>\\n\\n\\n<div class="w3-top">\\n    <ul class="w3-navbar w3-white w3-wide w3-padding-8 w3-card-2">\\n        <li>\\n            <a class="w3-margin-left" ; href=" http://www.stmarytx.edu/"><b><img style="width: 25px; height: 25px;"\\n                                                                                 src="https://s3-us-west-2.amazonaws.com/asset.plexuss.com/college/logos/St_Marys_University.png"\\n                                                                                 alt=""> </b> St.Mary\\\'s University</a>\\n        </li>\\n        <li class="w3-right w3-hide-small">\\n            <a href="http://cl.stmarytx.edu/esp/brochure.pdf" class="w3-left">Brochure</a>\\n            <a href="https://www.stmarytx.edu/academics/department/engineering/" class="w3-left">Engineering\\n                Department</a>\\n            <a href="https://www.stmarytx.edu/outreach/summer-camps/robotics-and-java-camp/"\\n               class="w3-left w3-margin-right">Application Form</a>\\n        </li>\\n    </ul>\\n</div>\\n\\n\\n<header class="w3-display-container w3-content w3-wide" style="max-width:2000px;" id="home">\\n    <img class="w3-image"\\n         src="http://rcysl.com/wp-content/uploads/2016/12/Blue-Hd-Wallpapers-HD-Collection.jpg"\\n         alt="Pre-Engineering Summer Program at St. Mary\\\'s University" style="width:100%;height: 400px">\\n    <div class="w3-display-middle w3-margin-top w3-center">\\n        <h1 id="head" class="w3-xxlarge"><span>Pre-Engineering Summer Program</span> <span\\n                class="w3-hide-small"> -- St. Mary\\\'s University</span>\\n        </h1>\\n    </div>\\n</header>\\n\\n\\n<!--About -->\\n<div class="w3-content w3-padding  " style="max-width:1100px ">\\n    <div class="w3-container w3-padding-32" id="about">\\n        <h3 class="w3-border-bottom w3-border-light-grey w3-padding-8">About</h3>\\n        <p>The Pre-Engineering Robotics and Java Programming Summer Program at St. Mary\\\'s University is designed to\\n            teach middle school and high school students to learn robotics, JAVA programming, and operations research.\\n            <span style="background-color:#ffff80">We will offer four two-week camps (<strong style="color:#ff0000">for commuters only</strong>) in the summer of 2017 on St. Mary\\\'s campus. The camp time is from 8:30am to 4pm. The camp is free of charge for accepted applicants.</span>\\n            A decision on the\\n            application will be made toward the end of April or early May 2017. Thanks a lot for your patience.\\n        </p>\\n        <p>\\n                   <span style="background-color:#ffff80"><span style="background-color:#ffff80"></span><strong\\n                           style="color:#ff0000">Note: To receive further announcements about\\n                   this program, please join its mailing list by visiting:<a\\n                               href="http://mailhide.recaptcha.net/d?k=01iTHYKq0gMvmiEmjZceWULw==&amp;c=3sO8Z4dliOxu-iR-sDzi_OzQkcPQydYFdikdrlD0KHHLv0wjBFy0nuKAvZulfkRv"\\n                               target="_blank"> Here</a> </strong></span>\\n        </p>\\n    </div>\\n\\n\\n    <!-- Video entries -->\\n    <div class="w3-content w3-padding  " style="max-width:1100px ">\\n\\n        <h3 class="w3-border-bottom w3-border-light-grey w3-padding-8">Projects</h3>\\n        <p>The following two videos demonstrate two of our students\\\' projects: a rubik\\\'s cube solver using a Mindstorm\\n            NXT robot and a video game developed for Android mobile devices using JAVA programming language.</p>\\n        <div class="w3-col l6 m6">\\n\\n            <!-- First Video entries -->\\n            <div class="w3-card-4 w3-margin w3-white">\\n                <div class="w3-container">\\n                    <object>\\n                        <param name="movie" value="http://www.youtube.com/v/NMYqOUVZ3V4&amp;hl=en_US&amp;fs=1&amp;">\\n                        <param name="allowFullScreen" value="true">\\n                        <param name="allowscriptaccess" value="always">\\n                        <embed src="http://www.youtube.com/v/NMYqOUVZ3V4&amp;hl=en_US&amp;fs=1&amp;"\\n                               type="application/x-shockwave-flash"\\n                               height="385" width="450">\\n                    </object>\\n                    <h3><b> A rubik\\\'s cube solver using a Mindstorm NXT robot</b></h3>\\n                    <div class="w3-row">\\n                    </div>\\n                </div>\\n            </div>\\n            <hr>\\n        </div>\\n\\n        <!-- First Video entries -->\\n        <div class="w3-col l6 m6">\\n            <div class="w3-card-4 w3-margin w3-white">\\n                <div class="w3-container">\\n                    <object>\\n                        <param name="movie" value="http://www.youtube.com/v/NMYqOUVZ3V4&amp;hl=en_US&amp;fs=1&amp;">\\n                        <param name="allowFullScreen" value="true">\\n                        <param name="allowscriptaccess" value="always">\\n                        <embed src="http://www.youtube.com/v/NMYqOUVZ3V4&amp;hl=en_US&amp;fs=1&amp;"\\n                               type="application/x-shockwave-flash"\\n                               height="385" width="450">\\n                    </object>\\n                    <h3><b> A rubik\\\'s cube solver using a Mindstorm NXT robot</b></h3>\\n                    <div class="w3-row">\\n                    </div>\\n                </div>\\n            </div>\\n            <hr>\\n        </div>\\n\\n        <!-- Professor Section -->\\n        <div class="w3-content w3-padding  " style="max-width:1100px ">\\n            <h3 class="w3-border-bottom w3-border-light-grey w3-padding-8">Program Director</h3>\\n            <div class="w3-row-padding">\\n                <div class="w3-col l6 m6 w3-margin-bottom ">\\n                    <img src="https://www.stmarytx.edu/wp-content/uploads/2016/06/SET-faculty-wenbin-luo.jpg"\\n                         style="width:50%;height: 20%"\\n                         alt="profile icon"></i>\\n                    <h3>Dr. Wenbin Luo, Program Director</h3>\\n                    <td style="text-align: left; width: 330px;" height="19"><span style="font-family: Times New Roman;"><br>\\n                        Professor<br>\\n                        Engineering Department<br>\\n                        St. Mary\\\'s University<br>\\n                        San Antonio, TX 78228<br>\\n                        <br>\\n                        Email: <a\\n                                href="http://mailhide.recaptcha.net/d?k=01aefe705BfaIowg6wuoTZkQ==&amp;c=31iT-J-Qj3wbr_gkGbvcGYOiGFUcrPFqbRonE1iE5qk="\\n                                target="_blank">click here</a> <br>\\n                        Tel: (210) 431-5002</span></td>\\n                </div>\\n\\n                <div class="w3-col l6 m6 w3-margin-bottom ">\\n                    <img src="https://www.stmarytx.edu/wp-content/uploads/2016/05/faculty-ozgur-aktunc-1.jpg"\\n                         style="width:50%;height: 20%"\\n                         alt="profile icon"></i>\\n                    <h3>Dr. Ozgur Aktunc, Program Co-Director</h3>\\n                    <td style="width: 330px;" align="left" height="19"><p align="left"><span\\n                            style="font-family: Times New Roman;"><br>\\n                            Associate Professor<br>\\n                            Engineering Department<br>\\n                            St. Mary\\\'s University<br>\\n                            San Antonio, TX 78228<br>\\n                            <br>\\n                            Email: <a\\n                                href="http://mailhide.recaptcha.net/d?k=01gVmrYGqp67bAM3p2HupRfg==&amp;c=bEaeqnHtfQWV5yoh27gfW8d5L8ju1FQtN6Lps3JBdUQ="\\n                                target="_blank">click here</a> <br>\\n                            Tel: (210) 431-2052</span></p>\\n                    </td>\\n                </div>\\n            </div>\\n        </div>\\n\\n\\n        <button v-if="is_adding_post" class="w3-btn w3-section, float-left, apply-btn" v-on:click="add_post_button()">\\n            <i class="fa fa-paper-plane"></i> Application\\n        </button>\\n\\n        <!-- Contact Section -->\\n        <div v-if="is_adding_post" id="add_post_div">\\n            <div class="w3-container w3-padding-32" id="application">\\n\\n                <h3 class="w3-border-bottom w3-border-light-grey w3-padding-12">Application</h3>\\n                <p>Lets get in touch and talk about your and the project.</p>\\n                <form action="form.asp" target="_blank">\\n                    <input class="w3-input" type="text" placeholder="First Name" required name="fName">\\n                    <input class="w3-input" type="text" placeholder="Last Name" required name="lName">\\n                    <input class="w3-input w3-section" type="text" placeholder="Email" required name="email">\\n                    <input class="w3-input w3-section" type="text" placeholder="Birthday" required name="birthday">\\n                    <input class="w3-input w3-section" type="text" placeholder="Mailing Address" required\\n                           name="mailing">\\n                    <input class="w3-input w3-section" type="text" placeholder="Phone" required name="phone">\\n                    <input class="w3-input w3-section" type="text" placeholder="School" required name="school">\\n                    <input class="w3-input w3-section" type="text" placeholder="GPA" required name="gpa">\\n                    <input class="w3-input w3-section" type="text" placeholder="Emergency Contact" required\\n                           name="emergency">\\n                    <input class="w3-input w3-section" type="text" placeholder="Teacher\\\'s name" required name="teacher">\\n                    <button class="w3-btn w3-section" type="submit">\\n                        <i class="fa fa-paper-plane"></i> SUBMIT\\n                    </button>\\n                    <button class="info_btn" v-on:click="get_more_info(post.id, post.destination)"><i\\n                            class="fa fa-minus fa-lg"></i> collapse\\n                    </button>\\n                </form>\\n            </div>\\n        </div>\\n\\n\\n</body>\\n</html>\\n<!-- Testing Purpse -->\\n         <div id="vue-div" class="display:none">\\n        <div class="button_bar">\\n\\n            <button v-if="!is_adding_post" class="btn btn-danger btn-sm" v-on:click="add_post_button()"\\n                    v-bind:class="{\\\'enabled\\\': logged_in}">\\n           Add new post\\n            </button>\\n            <button v-if="is_adding_post" class="btn btn-warning btn-sm" v-on:click="add_post_button()">\\n            \', escape=False)'
p101
sI14
S'response.write(icon_cancel)'
p102
sI15
S'response.write(\'Cancel\\n            </button>\\n\\n        </div>\\n\\n        <div v-if="is_adding_post" id="add_post_div">\\n            <form action="#" v-on:submit.prevent="add_post" class="form-horizontal" enctype="multipart/form-data"\\n                  method="post">\\n                <div class="form-group" id="no_table_post_content__row">\\n                    <div>\\n                        <textarea class="form-control string" rows="6" id="no_table_post_content"\\n                                  v-model="form_post_content" placeholder="Content" type="text"></textarea>\\n                        <span class="help-block"></span>\\n\\n                    </div>\\n                </div>\\n\\n                <div class="form-group" id="submit_record__row">\\n                    <div>\\n                        <input class="btn btn-primary" id="add_post_submit" type="submit" value="Submit"/>\\n\\n                    </div>\\n                </div>\\n            </form>\\n        </div>\\n\\n\\n    </div>\\n<script src="\', escape=False)'
p103
sI16
S"response.write(URL('static', 'js/default_index.js'))"
p104
sI17
S'response.write(\'"></script>\', escape=False)'
p105
ssg83
S'()'
p106
sg85
S'<module>'
p107
sasS'pyver'
p108
S'Python 2.7.13: /Library/Frameworks/Python.framework/Versions/2.7/Resources/Python.app/Contents/MacOS/Python (prefix: /Library/Frameworks/Python.framework/Versions/2.7)'
p109
sS'session'
p110
g57
(S's\xbf\x00\x00\x00<div><table><tr><td style="font-weight:bold;vertical-align:top;">hmac_key</td><td style="vertical-align:top;">:</td><td><div>72bf469f-47fd-460e-a85e-31709f02a2d8</div></td></tr></table></div>'
tRp111
sS'etype'
p112
S"<type 'exceptions.NameError'>"
p113
sS'date'
p114
S'Wed Jul 26 13:40:14 2017'
p115
sS'response'
p116
g57
(S's\xdd>\x00\x00<div><table><tr><td style="font-weight:bold;vertical-align:top;">body</td><td style="vertical-align:top;">:</td><td><div>&lt;cStringIO.StringO object at 0x108cba1f0&gt;</div></td></tr><tr><td style="font-weight:bold;vertical-align:top;">cookies</td><td style="vertical-align:top;">:</td><td><div><table><tr><td style="font-weight:bold;vertical-align:top;">session_id_stmaryu</td><td style="vertical-align:top;">:</td><td><div>3:44919337-4c10-4e0e-bd98-04394daf39b5<table><tr><td style="font-weight:bold;vertical-align:top;">comment</td><td style="vertical-align:top;">:</td><td><div></div></td></tr><tr><td style="font-weight:bold;vertical-align:top;">domain</td><td style="vertical-align:top;">:</td><td><div></div></td></tr><tr><td style="font-weight:bold;vertical-align:top;">expires</td><td style="vertical-align:top;">:</td><td><div></div></td></tr><tr><td style="font-weight:bold;vertical-align:top;">httponly</td><td style="vertical-align:top;">:</td><td><div></div></td></tr><tr><td style="font-weight:bold;vertical-align:top;">max-age</td><td style="vertical-align:top;">:</td><td><div></div></td></tr><tr><td style="font-weight:bold;vertical-align:top;">path</td><td style="vertical-align:top;">:</td><td><div>/</div></td></tr><tr><td style="font-weight:bold;vertical-align:top;">secure</td><td style="vertical-align:top;">:</td><td><div></div></td></tr><tr><td style="font-weight:bold;vertical-align:top;">version</td><td style="vertical-align:top;">:</td><td><div></div></td></tr></table></div></td></tr></table></div></td></tr><tr><td style="font-weight:bold;vertical-align:top;">delimiters</td><td style="vertical-align:top;">:</td><td><div><table><tr><td><div>{{</div></td></tr><tr><td><div>}}</div></td></tr></table></div></td></tr><tr><td style="font-weight:bold;vertical-align:top;">files</td><td style="vertical-align:top;">:</td><td><div><table></table></div></td></tr><tr><td style="font-weight:bold;vertical-align:top;">flash</td><td style="vertical-align:top;">:</td><td><div></div></td></tr><tr><td style="font-weight:bold;vertical-align:top;">form_label_separator</td><td style="vertical-align:top;">:</td><td><div></div></td></tr><tr><td style="font-weight:bold;vertical-align:top;">formstyle</td><td style="vertical-align:top;">:</td><td><div>bootstrap3_inline</div></td></tr><tr><td style="font-weight:bold;vertical-align:top;">generic_patterns</td><td style="vertical-align:top;">:</td><td><div><table><tr><td><div>*</div></td></tr></table></div></td></tr><tr><td style="font-weight:bold;vertical-align:top;">google_analytics_id</td><td style="vertical-align:top;">:</td><td><div>None</div></td></tr><tr><td style="font-weight:bold;vertical-align:top;">headers</td><td style="vertical-align:top;">:</td><td><div><table><tr><td style="font-weight:bold;vertical-align:top;">X-Powered-By</td><td style="vertical-align:top;">:</td><td><div>web2py</div></td></tr></table></div></td></tr><tr><td style="font-weight:bold;vertical-align:top;">logo</td><td style="vertical-align:top;">:</td><td><div><a class="navbar-brand" href="http://www.web2py.com/" id="web2py-logo"><b>web<span>2</span>py</b>&trade;&nbsp;</a></div></td></tr><tr><td style="font-weight:bold;vertical-align:top;">menu</td><td style="vertical-align:top;">:</td><td><div><table><tr><td><div><table><tr><td><div>Home</div></td></tr><tr><td><div>False</div></td></tr><tr><td><div>/StMaryU/default/index</div></td></tr><tr><td><div><table></table></div></td></tr></table></div></td></tr><tr><td><div><table><tr><td><div>My Sites</div></td></tr><tr><td><div>False</div></td></tr><tr><td><div>/admin/default/site</div></td></tr></table></div></td></tr><tr><td><div><table><tr><td><div>This App</div></td></tr><tr><td><div>False</div></td></tr><tr><td><div>#</div></td></tr><tr><td><div><table><tr><td><div><table><tr><td><div>Design</div></td></tr><tr><td><div>False</div></td></tr><tr><td><div>/admin/default/design/StMaryU</div></td></tr></table></div></td></tr><tr><td><div><li class="divider"></li></div></td></tr><tr><td><div><table><tr><td><div>Controller</div></td></tr><tr><td><div>False</div></td></tr><tr><td><div>/admin/default/edit/StMaryU/controllers/default.py</div></td></tr></table></div></td></tr><tr><td><div><table><tr><td><div>View</div></td></tr><tr><td><div>False</div></td></tr><tr><td><div>/admin/default/edit/StMaryU/views/default/index.html</div></td></tr></table></div></td></tr><tr><td><div><table><tr><td><div>DB Model</div></td></tr><tr><td><div>False</div></td></tr><tr><td><div>/admin/default/edit/StMaryU/models/db.py</div></td></tr></table></div></td></tr><tr><td><div><table><tr><td><div>Menu Model</div></td></tr><tr><td><div>False</div></td></tr><tr><td><div>/admin/default/edit/StMaryU/models/menu.py</div></td></tr></table></div></td></tr><tr><td><div><table><tr><td><div>Config.ini</div></td></tr><tr><td><div>False</div></td></tr><tr><td><div>/admin/default/edit/StMaryU/private/appconfig.ini</div></td></tr></table></div></td></tr><tr><td><div><table><tr><td><div>Layout</div></td></tr><tr><td><div>False</div></td></tr><tr><td><div>/admin/default/edit/StMaryU/views/layout.html</div></td></tr></table></div></td></tr><tr><td><div><table><tr><td><div>Stylesheet</div></td></tr><tr><td><div>False</div></td></tr><tr><td><div>/admin/default/edit/StMaryU/static/css/web2py-bootstrap3.css</div></td></tr></table></div></td></tr><tr><td><div><table><tr><td><div>Database</div></td></tr><tr><td><div>False</div></td></tr><tr><td><div>/StMaryU/appadmin/index</div></td></tr></table></div></td></tr><tr><td><div><table><tr><td><div>Errors</div></td></tr><tr><td><div>False</div></td></tr><tr><td><div>/admin/default/errors/StMaryU</div></td></tr></table></div></td></tr><tr><td><div><table><tr><td><div>About</div></td></tr><tr><td><div>False</div></td></tr><tr><td><div>/admin/default/about/StMaryU</div></td></tr></table></div></td></tr></table></div></td></tr></table></div></td></tr><tr><td><div><table><tr><td><div>web2py.com</div></td></tr><tr><td><div>False</div></td></tr><tr><td><div>#</div></td></tr><tr><td><div><table><tr><td><div><table><tr><td><div>Download</div></td></tr><tr><td><div>False</div></td></tr><tr><td><div>http://www.web2py.com/examples/default/download</div></td></tr></table></div></td></tr><tr><td><div><table><tr><td><div>Support</div></td></tr><tr><td><div>False</div></td></tr><tr><td><div>http://www.web2py.com/examples/default/support</div></td></tr></table></div></td></tr><tr><td><div><table><tr><td><div>Demo</div></td></tr><tr><td><div>False</div></td></tr><tr><td><div>http://web2py.com/demo_admin</div></td></tr></table></div></td></tr><tr><td><div><table><tr><td><div>Quick Examples</div></td></tr><tr><td><div>False</div></td></tr><tr><td><div>http://web2py.com/examples/default/examples</div></td></tr></table></div></td></tr><tr><td><div><table><tr><td><div>FAQ</div></td></tr><tr><td><div>False</div></td></tr><tr><td><div>http://web2py.com/AlterEgo</div></td></tr></table></div></td></tr><tr><td><div><table><tr><td><div>Videos</div></td></tr><tr><td><div>False</div></td></tr><tr><td><div>http://www.web2py.com/examples/default/videos/</div></td></tr></table></div></td></tr><tr><td><div><table><tr><td><div>Free Applications</div></td></tr><tr><td><div>False</div></td></tr><tr><td><div>http://web2py.com/appliances</div></td></tr></table></div></td></tr><tr><td><div><table><tr><td><div>Plugins</div></td></tr><tr><td><div>False</div></td></tr><tr><td><div>http://web2py.com/plugins</div></td></tr></table></div></td></tr><tr><td><div><table><tr><td><div>Recipes</div></td></tr><tr><td><div>False</div></td></tr><tr><td><div>http://web2pyslices.com/</div></td></tr></table></div></td></tr></table></div></td></tr></table></div></td></tr><tr><td><div><table><tr><td><div>Documentation</div></td></tr><tr><td><div>False</div></td></tr><tr><td><div>#</div></td></tr><tr><td><div><table><tr><td><div><table><tr><td><div>Online book</div></td></tr><tr><td><div>False</div></td></tr><tr><td><div>http://www.web2py.com/book</div></td></tr></table></div></td></tr><tr><td><div><li class="divider"></li></div></td></tr><tr><td><div><table><tr><td><div>Preface</div></td></tr><tr><td><div>False</div></td></tr><tr><td><div>http://www.web2py.com/book/default/chapter/00</div></td></tr></table></div></td></tr><tr><td><div><table><tr><td><div>Introduction</div></td></tr><tr><td><div>False</div></td></tr><tr><td><div>http://www.web2py.com/book/default/chapter/01</div></td></tr></table></div></td></tr><tr><td><div><table><tr><td><div>Python</div></td></tr><tr><td><div>False</div></td></tr><tr><td><div>http://www.web2py.com/book/default/chapter/02</div></td></tr></table></div></td></tr><tr><td><div><table><tr><td><div>Overview</div></td></tr><tr><td><div>False</div></td></tr><tr><td><div>http://www.web2py.com/book/default/chapter/03</div></td></tr></table></div></td></tr><tr><td><div><table><tr><td><div>The Core</div></td></tr><tr><td><div>False</div></td></tr><tr><td><div>http://www.web2py.com/book/default/chapter/04</div></td></tr></table></div></td></tr><tr><td><div><table><tr><td><div>The Views</div></td></tr><tr><td><div>False</div></td></tr><tr><td><div>http://www.web2py.com/book/default/chapter/05</div></td></tr></table></div></td></tr><tr><td><div><table><tr><td><div>Database</div></td></tr><tr><td><div>False</div></td></tr><tr><td><div>http://www.web2py.com/book/default/chapter/06</div></td></tr></table></div></td></tr><tr><td><div><table><tr><td><div>Forms and Validators</div></td></tr><tr><td><div>False</div></td></tr><tr><td><div>http://www.web2py.com/book/default/chapter/07</div></td></tr></table></div></td></tr><tr><td><div><table><tr><td><div>Email and SMS</div></td></tr><tr><td><div>False</div></td></tr><tr><td><div>http://www.web2py.com/book/default/chapter/08</div></td></tr></table></div></td></tr><tr><td><div><table><tr><td><div>Access Control</div></td></tr><tr><td><div>False</div></td></tr><tr><td><div>http://www.web2py.com/book/default/chapter/09</div></td></tr></table></div></td></tr><tr><td><div><table><tr><td><div>Services</div></td></tr><tr><td><div>False</div></td></tr><tr><td><div>http://www.web2py.com/book/default/chapter/10</div></td></tr></table></div></td></tr><tr><td><div><table><tr><td><div>Ajax Recipes</div></td></tr><tr><td><div>False</div></td></tr><tr><td><div>http://www.web2py.com/book/default/chapter/11</div></td></tr></table></div></td></tr><tr><td><div><table><tr><td><div>Components and Plugins</div></td></tr><tr><td><div>False</div></td></tr><tr><td><div>http://www.web2py.com/book/default/chapter/12</div></td></tr></table></div></td></tr><tr><td><div><table><tr><td><div>Deployment Recipes</div></td></tr><tr><td><div>False</div></td></tr><tr><td><div>http://www.web2py.com/book/default/chapter/13</div></td></tr></table></div></td></tr><tr><td><div><table><tr><td><div>Other Recipes</div></td></tr><tr><td><div>False</div></td></tr><tr><td><div>http://www.web2py.com/book/default/chapter/14</div></td></tr></table></div></td></tr><tr><td><div><table><tr><td><div>Helping web2py</div></td></tr><tr><td><div>False</div></td></tr><tr><td><div>http://www.web2py.com/book/default/chapter/15</div></td></tr></table></div></td></tr><tr><td><div><table><tr><td><div>Buy web2py\'s book</div></td></tr><tr><td><div>False</div></td></tr><tr><td><div>http://stores.lulu.com/web2py</div></td></tr></table></div></td></tr></table></div></td></tr></table></div></td></tr><tr><td><div><table><tr><td><div>Community</div></td></tr><tr><td><div>False</div></td></tr><tr><td><div>None</div></td></tr><tr><td><div><table><tr><td><div><table><tr><td><div>Groups</div></td></tr><tr><td><div>False</div></td></tr><tr><td><div>http://www.web2py.com/examples/default/usergroups</div></td></tr></table></div></td></tr><tr><td><div><table><tr><td><div>Twitter</div></td></tr><tr><td><div>False</div></td></tr><tr><td><div>http://twitter.com/web2py</div></td></tr></table></div></td></tr><tr><td><div><table><tr><td><div>Live Chat</div></td></tr><tr><td><div>False</div></td></tr><tr><td><div>http://webchat.freenode.net/?channels=web2py</div></td></tr></table></div></td></tr></table></div></td></tr></table></div></td></tr></table></div></td></tr><tr><td style="font-weight:bold;vertical-align:top;">meta</td><td style="vertical-align:top;">:</td><td><div><table><tr><td style="font-weight:bold;vertical-align:top;">author</td><td style="vertical-align:top;">:</td><td><div>Your Name &lt;you@example.com&gt;</div></td></tr><tr><td style="font-weight:bold;vertical-align:top;">description</td><td style="vertical-align:top;">:</td><td><div>a cool new app</div></td></tr><tr><td style="font-weight:bold;vertical-align:top;">generator</td><td style="vertical-align:top;">:</td><td><div>Web2py Web Framework</div></td></tr><tr><td style="font-weight:bold;vertical-align:top;">keywords</td><td style="vertical-align:top;">:</td><td><div><table><tr><td><div>web2py</div></td></tr><tr><td><div>python</div></td></tr><tr><td><div>framework</div></td></tr></table></div></td></tr></table></div></td></tr><tr><td style="font-weight:bold;vertical-align:top;">models_to_run</td><td style="vertical-align:top;">:</td><td><div><table><tr><td><div>^\\w+\\.py$</div></td></tr><tr><td><div>^default/\\w+\\.py$</div></td></tr><tr><td><div>^default/index/\\w+\\.py$</div></td></tr></table></div></td></tr><tr><td style="font-weight:bold;vertical-align:top;">postprocessing</td><td style="vertical-align:top;">:</td><td><div><table></table></div></td></tr><tr><td style="font-weight:bold;vertical-align:top;">session_client</td><td style="vertical-align:top;">:</td><td><div>127.0.0.1</div></td></tr><tr><td style="font-weight:bold;vertical-align:top;">session_cookie_compression_level</td><td style="vertical-align:top;">:</td><td><div>None</div></td></tr><tr><td style="font-weight:bold;vertical-align:top;">session_cookie_expires</td><td style="vertical-align:top;">:</td><td><div>None</div></td></tr><tr><td style="font-weight:bold;vertical-align:top;">session_data_name</td><td style="vertical-align:top;">:</td><td><div>session_data_stmaryu</div></td></tr><tr><td style="font-weight:bold;vertical-align:top;">session_db_record_id</td><td style="vertical-align:top;">:</td><td><div>3L</div></td></tr><tr><td style="font-weight:bold;vertical-align:top;">session_db_table</td><td style="vertical-align:top;">:</td><td><div>&lt;Table web2py_session_StMaryU (id, locked, client_ip, created_datetime, modified_datetime, unique_key, session_data)&gt;</div></td></tr><tr><td style="font-weight:bold;vertical-align:top;">session_db_unique_key</td><td style="vertical-align:top;">:</td><td><div>44919337-4c10-4e0e-bd98-04394daf39b5</div></td></tr><tr><td style="font-weight:bold;vertical-align:top;">session_hash</td><td style="vertical-align:top;">:</td><td><div>6a66e35d221ffd11e3cc387530e2f873</div></td></tr><tr><td style="font-weight:bold;vertical-align:top;">session_id</td><td style="vertical-align:top;">:</td><td><div>3:44919337-4c10-4e0e-bd98-04394daf39b5</div></td></tr><tr><td style="font-weight:bold;vertical-align:top;">session_id_name</td><td style="vertical-align:top;">:</td><td><div>session_id_stmaryu</div></td></tr><tr><td style="font-weight:bold;vertical-align:top;">session_masterapp</td><td style="vertical-align:top;">:</td><td><div>StMaryU</div></td></tr><tr><td style="font-weight:bold;vertical-align:top;">session_new</td><td style="vertical-align:top;">:</td><td><div>False</div></td></tr><tr><td style="font-weight:bold;vertical-align:top;">session_storage_type</td><td style="vertical-align:top;">:</td><td><div>db</div></td></tr><tr><td style="font-weight:bold;vertical-align:top;">status</td><td style="vertical-align:top;">:</td><td><div>200</div></td></tr><tr><td style="font-weight:bold;vertical-align:top;">subtitle</td><td style="vertical-align:top;">:</td><td><div></div></td></tr><tr><td style="font-weight:bold;vertical-align:top;">title</td><td style="vertical-align:top;">:</td><td><div>Stmaryu</div></td></tr><tr><td style="font-weight:bold;vertical-align:top;">view</td><td style="vertical-align:top;">:</td><td><div>default/index.html</div></td></tr></table></div>'
tRp117
sS'locals'
p118
(dp119
S'Service'
p120
S"<class 'gluon.tools.Service'>"
p121
sS'FORMAT'
p122
S"'%(asctime)s %(levelname)s %(process)s %(thread)s %(funcName)s():%(lineno)d %(message)s'"
p123
sS'OBJECT'
p124
S"<class 'gluon.html.OBJECT'>"
p125
sS'SQLDB'
p126
S"<class 'pydal.base.DAL'>"
p127
sg110
S"<Storage {'hmac_key': '72bf469f-47fd-460e-a85e-31709f02a2d8'}>"
p128
sS'LINK'
p129
S"<class 'gluon.html.LINK'>"
p130
sS'BR'
p131
S"<class 'gluon.html.BR'>"
p132
sS'local_import'
p133
S'<function <lambda>>'
p134
sS'OPTGROUP'
p135
S"<class 'gluon.html.OPTGROUP'>"
p136
sS'__package__'
p137
S'None'
p138
sS'PRE'
p139
S"<class 'gluon.html.PRE'>"
p140
sS'IS_INT_IN_RANGE'
p141
S"<class 'gluon.validators.IS_INT_IN_RANGE'>"
p142
sS'IS_LOWER'
p143
S"<class 'gluon.validators.IS_LOWER'>"
p144
sS'IS_STRONG'
p145
S"<class 'gluon.validators.IS_STRONG'>"
p146
sS'cache'
p147
S'<gluon.cache.Cache object>'
p148
sS'IS_IN_DB'
p149
S"<class 'gluon.validators.IS_IN_DB'>"
p150
sS'TAG'
p151
S'<gluon.html.__TAG__ object>'
p152
sS'SQLField'
p153
S"<class 'pydal.objects.Field'>"
p154
sS'mail'
p155
S'<gluon.tools.Mail object>'
p156
sS'logger'
p157
S'<logging.Logger object>'
p158
sS'BODY'
p159
S"<class 'gluon.html.BODY'>"
p160
sS'IS_DATE_IN_RANGE'
p161
S"<class 'gluon.validators.IS_DATE_IN_RANGE'>"
p162
sS'IFRAME'
p163
S"<class 'gluon.html.IFRAME'>"
p164
sS'URL'
p165
S'<function URL>'
p166
sS'__file__'
p167
S"'/Users/yuzhuangchen/PycharmProjects/untitled/web2py/applications/StMaryU/views/default/index.html'"
p168
sS'db'
p169
S'<DAL uri="sqlite://storage.sqlite">'
p170
sS'auth'
p171
S'<gluon.tools.Auth object>'
p172
sS'P'
S"<class 'gluon.html.P'>"
p173
sS'TFOOT'
p174
S"<class 'gluon.html.TFOOT'>"
p175
sS'XHTML'
p176
S"<class 'gluon.html.XHTML'>"
p177
sS'datetime'
p178
S"<module 'datetime' from '/Library/Frameworks/Pyt...sions/2.7/lib/python2.7/lib-dynload/datetime.so'>"
p179
sS'ON'
p180
S'True'
p181
sS'OL'
p182
S"<class 'gluon.html.OL'>"
p183
sS'TEXTAREA'
p184
S"<class 'gluon.html.TEXTAREA'>"
p185
sS'MENU'
p186
S"<class 'gluon.html.MENU'>"
p187
sS'IS_IMAGE'
p188
S"<class 'gluon.validators.IS_IMAGE'>"
p189
sS'EM'
p190
S"<class 'gluon.html.EM'>"
p191
sS'CODE'
p192
S"<class 'gluon.html.CODE'>"
p193
sS'HTTP'
p194
S"<class 'gluon.http.HTTP'>"
p195
sS'HR'
p196
S"<class 'gluon.html.HR'>"
p197
sS'IS_DATETIME'
p198
S"<class 'gluon.validators.IS_DATETIME'>"
p199
sS'STYLE'
p200
S"<class 'gluon.html.STYLE'>"
p201
sS'LABEL'
p202
S"<class 'gluon.html.LABEL'>"
p203
sS'CLEANUP'
p204
S"<class 'gluon.validators.CLEANUP'>"
p205
sS'plugins'
p206
S'<gluon.tools.PluginManager object>'
p207
sS'SELECT'
p208
S"<class 'gluon.html.SELECT'>"
p209
sS'CENTER'
p210
S"<class 'gluon.html.CENTER'>"
p211
sS'Auth'
p212
S"<class 'gluon.tools.Auth'>"
p213
sS'DEVELOPMENT_MENU'
p214
g181
sS'__builtins__'
p215
S"{'ArithmeticError': <type 'exceptions.ArithmeticError'>, 'AssertionError': <type 'exceptions.AssertionError'>, 'AttributeError': <type 'exceptions.AttributeError'>, 'BaseException': <type 'exceptions.BaseException'>, 'BufferError': <type 'exceptions.BufferError'>, 'BytesWarning': <type 'exceptions.BytesWarning'>, 'DeprecationWarning': <type 'exceptions.DeprecationWarning'>, 'EOFError': <type 'exceptions.EOFError'>, 'Ellipsis': Ellipsis, 'EnvironmentError': <type 'exceptions.EnvironmentError'>, ...}"
p216
sS'HTML'
p217
S"<class 'gluon.html.HTML'>"
p218
sS'SQLFORM'
p219
S"<class 'gluon.sqlhtml.SQLFORM'>"
p220
sS'LOAD'
p221
S'<function LOAD>'
p222
sS'redirect'
p223
S'<function redirect>'
p224
sS'FIELDSET'
p225
S"<class 'gluon.html.FIELDSET'>"
p226
sS'IS_EQUAL_TO'
p227
S"<class 'gluon.validators.IS_EQUAL_TO'>"
p228
sS'embed64'
p229
S'<function embed64>'
p230
sS'IS_LIST_OF'
p231
S"<class 'gluon.validators.IS_LIST_OF'>"
p232
sS'INPUT'
p233
S"<class 'gluon.html.INPUT'>"
p234
sS'EMBED'
p235
S"<class 'gluon.html.EMBED'>"
p236
sS'_'
S'<function _>'
p237
sS'logging'
p238
S"<module 'logging' from '/Library/Frameworks/Pyth...Versions/2.7/lib/python2.7/logging/__init__.pyc'>"
p239
sS'myconf'
p240
S"{'forms': {'formstyle': 'bootstrap3_inline', 'se...': 'sqlite://storage.sqlite', 'pool_size': '10'}}"
p241
sS'H2'
p242
S"<class 'gluon.html.H2'>"
p243
sS'H3'
p244
S"<class 'gluon.html.H3'>"
p245
sS'AppConfig'
p246
S'<function AppConfig>'
p247
sS'H1'
p248
S"<class 'gluon.html.H1'>"
p249
sS'H6'
p250
S"<class 'gluon.html.H6'>"
p251
sS'H4'
p252
S"<class 'gluon.html.H4'>"
p253
sS'H5'
p254
S"<class 'gluon.html.H5'>"
p255
sS'UL'
p256
S"<class 'gluon.html.UL'>"
p257
sS'IS_UPPER'
p258
S"<class 'gluon.validators.IS_UPPER'>"
p259
sS'xmlescape'
p260
S'<function xmlescape>'
p261
sS'nicefy'
p262
S'<function nicefy>'
p263
sS'IS_TIME'
p264
S"<class 'gluon.validators.IS_TIME'>"
p265
sS'strftime'
p266
S'<built-in function strftime>'
p267
sS'OPTION'
p268
S"<class 'gluon.html.OPTION'>"
p269
sS'TITLE'
p270
S"<class 'gluon.html.TITLE'>"
p271
sS'CRYPT'
p272
S"<class 'gluon.validators.CRYPT'>"
p273
sS'IS_EMPTY_OR'
p274
S"<class 'gluon.validators.IS_EMPTY_OR'>"
p275
sS'MARKMIN'
p276
S"<class 'gluon.html.MARKMIN'>"
p277
sS'web2py_uuid'
p278
S'<function web2py_uuid>'
p279
sS'__name__'
p280
S"'__restricted__'"
p281
sS'STRONG'
p282
S"<class 'gluon.html.STRONG'>"
p283
sS'COL'
p284
S"<class 'gluon.html.COL'>"
p285
sS'service'
p286
S'<gluon.tools.Service object>'
p287
sS'SCRIPT'
p288
S"<class 'gluon.html.SCRIPT'>"
p289
sS'json'
p290
S"<module 'json' from '/Library/Frameworks/Python....rk/Versions/2.7/lib/python2.7/json/__init__.pyc'>"
p291
sS'TABLE'
p292
S"<class 'gluon.html.TABLE'>"
p293
sS'IS_IPV4'
p294
S"<class 'gluon.validators.IS_IPV4'>"
p295
sS'IS_LENGTH'
p296
S"<class 'gluon.validators.IS_LENGTH'>"
p297
sS'IS_IPV6'
p298
S"<class 'gluon.validators.IS_IPV6'>"
p299
sS'XML'
p300
S"<class 'gluon.html.XML'>"
p301
sS'B'
S"<class 'gluon.html.B'>"
p302
sS'IMG'
p303
S"<class 'gluon.html.IMG'>"
p304
sS'SQLTABLE'
p305
S"<class 'gluon.sqlhtml.SQLTABLE'>"
p306
sS'IS_MATCH'
p307
S"<class 'gluon.validators.IS_MATCH'>"
p308
sS'IS_ALPHANUMERIC'
p309
S"<class 'gluon.validators.IS_ALPHANUMERIC'>"
p310
sS'SPAN'
p311
S"<class 'gluon.html.SPAN'>"
p312
sS'IS_JSON'
p313
S"<class 'gluon.validators.IS_JSON'>"
p314
sS'IS_IPADDRESS'
p315
S"<class 'gluon.validators.IS_IPADDRESS'>"
p316
sS'IS_SLUG'
p317
S"<class 'gluon.validators.IS_SLUG'>"
p318
sS'BEAUTIFY'
p319
S"<class 'gluon.html.BEAUTIFY'>"
p320
sS'META'
p321
S"<class 'gluon.html.META'>"
p322
sS'BUTTON'
p323
S"<class 'gluon.html.BUTTON'>"
p324
sS'IS_DATE'
p325
S"<class 'gluon.validators.IS_DATE'>"
p326
sS'IS_EMAIL'
p327
S"<class 'gluon.validators.IS_EMAIL'>"
p328
sS'IS_NOT_EMPTY'
p329
S"<class 'gluon.validators.IS_NOT_EMPTY'>"
p330
sS'IS_FLOAT_IN_RANGE'
p331
S"<class 'gluon.validators.IS_FLOAT_IN_RANGE'>"
p332
sS'TBODY'
p333
S"<class 'gluon.html.TBODY'>"
p334
sS'CAT'
p335
S"<class 'gluon.html.CAT'>"
p336
sS'Field'
p337
S"<class 'pydal.objects.Field'>"
p338
sS'IS_LIST_OF_EMAILS'
p339
S"<class 'gluon.validators.IS_LIST_OF_EMAILS'>"
p340
sS'DIV'
p341
S"<class 'gluon.html.DIV'>"
p342
sS'LEGEND'
p343
S"<class 'gluon.html.LEGEND'>"
p344
sS'COLGROUP'
p345
S"<class 'gluon.html.COLGROUP'>"
p346
sS'DAL'
p347
S"<class 'pydal.base.DAL'>"
p348
sS'ASSIGNJS'
p349
S'<function ASSIGNJS>'
p350
sS'TR'
p351
S"<class 'gluon.html.TR'>"
p352
sS'LI'
p353
S"<class 'gluon.html.LI'>"
p354
sS'TH'
p355
S"<class 'gluon.html.TH'>"
p356
sS'TD'
p357
S"<class 'gluon.html.TD'>"
p358
sS'PluginManager'
p359
S"<class 'gluon.tools.PluginManager'>"
p360
sS'IS_URL'
p361
S"<class 'gluon.validators.IS_URL'>"
p362
sS'A'
S"<class 'gluon.html.A'>"
p363
sS'HEAD'
p364
S"<class 'gluon.html.HEAD'>"
p365
sS'IS_DATETIME_IN_RANGE'
p366
S"<class 'gluon.validators.IS_DATETIME_IN_RANGE'>"
p367
sS'FORM'
p368
S"<class 'gluon.html.FORM'>"
p369
sS'I'
S"<class 'gluon.html.I'>"
p370
sS'sys'
p371
S"<module 'sys' (built-in)>"
p372
sS'IS_NOT_IN_DB'
p373
S"<class 'gluon.validators.IS_NOT_IN_DB'>"
p374
sg116
S"<Storage {'body': <cStringIO.StringO object at 0...y, session_data)>, 'view': 'default/index.html'}>"
p375
sS'THEAD'
p376
S"<class 'gluon.html.THEAD'>"
p377
sS'ANY_OF'
p378
S"<class 'gluon.validators.ANY_OF'>"
p379
sS'IS_NULL_OR'
p380
S"<class 'gluon.validators.IS_EMPTY_OR'>"
p381
sg56
S"<Storage {'_vars': <Storage {}>, 'function': 'in...Projects/untitled/web2py/applications/StMaryU/'}>"
p382
sS'IS_EXPR'
p383
S"<class 'gluon.validators.IS_EXPR'>"
p384
sS'T'
S'<gluon.languages.translator object>'
p385
sS'IS_IN_SET'
p386
S"<class 'gluon.validators.IS_IN_SET'>"
p387
sS'IS_UPLOAD_FILENAME'
p388
S"<class 'gluon.validators.IS_UPLOAD_FILENAME'>"
p389
sS'TT'
p390
S"<class 'gluon.html.TT'>"
p391
sS'IS_DECIMAL_IN_RANGE'
p392
S"<class 'gluon.validators.IS_DECIMAL_IN_RANGE'>"
p393
sssS'traceback'
p394
S'Traceback (most recent call last):\n  File "/Users/yuzhuangchen/PycharmProjects/untitled/web2py/gluon/restricted.py", line 227, in restricted\n    exec ccode in environment\n  File "/Users/yuzhuangchen/PycharmProjects/untitled/web2py/applications/StMaryU/views/default/index.html", line 14, in <module>\n    <style>\nNameError: name \'icon_cancel\' is not defined\n'
p395
s.